ccopy_reg
_reconstructor
p0
(csklearn.ensemble.gradient_boosting
GradientBoostingClassifier
p1
c__builtin__
object
p2
Ntp3
Rp4
(dp5
S'presort'
p6
S'auto'
p7
sS'warm_start'
p8
I00
sS'min_impurity_decrease'
p9
F0.0
sS'verbose'
p10
I0
sS'loss'
p11
S'deviance'
p12
sS'min_impurity_split'
p13
NsS'learning_rate'
p14
F0.1
sS'min_samples_leaf'
p15
I1
sS'n_estimators'
p16
I200
sS'subsample'
p17
F0.3
sS'init'
p18
NsS'random_state'
p19
NsS'criterion'
p20
S'friedman_mse'
p21
sS'min_weight_fraction_leaf'
p22
F0.0
sS'max_leaf_nodes'
p23
NsS'max_features'
p24
NsS'alpha'
p25
F0.9
sS'min_samples_split'
p26
I2
sS'max_depth'
p27
I3
sS'_sklearn_version'
p28
S'0.19.1'
p29
sb.